target datalayout = "e-m:e-p270:32:32-p271:32:32-p272:64:64-i64:64-i128:128-f80:128-n8:16:32:64-S128"
target triple = "x86_64-pc-linux-gnu"

%struct.Param = type { %struct.Expr, i32, i32, i32, i32, i32, i32 }
%struct.Expr = type { i32 }
%struct.PlannerInfo = type { i32, ptr, ptr, i32, ptr, ptr, ptr, ptr, i32, ptr, ptr, ptr, ptr, ptr, ptr, ptr, ptr, i32, ptr, ptr, ptr, ptr, ptr, i8, ptr, ptr, ptr, ptr, ptr, i32, ptr, ptr, ptr, ptr, ptr, ptr, ptr, i32, ptr, ptr, ptr, i32, ptr, ptr, ptr, ptr, ptr, ptr, [8 x ptr], [8 x ptr], ptr, ptr, ptr, ptr, ptr, ptr, ptr, double, double, double, i32, i8, i8, i8, i8, i8, i8, i8, i32, ptr, ptr, i32, i8, i8, i32, ptr, ptr, ptr, ptr, ptr, ptr, i8, ptr }
%struct.List = type { i32, i32, i32, ptr, [0 x %union.ListCell] }
%union.ListCell = type { ptr }
%struct.PlannerParamItem = type { i32, ptr, i32 }
%struct.Node = type { i32 }
%struct.PlannerGlobal = type { i32, ptr, ptr, ptr, ptr, ptr, ptr, ptr, ptr, ptr, ptr, ptr, ptr, ptr, ptr, ptr, ptr, i32, i32, i32, i8, i8, i8, i8, i8, ptr }
%struct.ReturningExpr = type { %struct.Expr, i32, i8, ptr }

; Function Attrs: inlinehint nounwind uwtable
define internal i32 @list_length(ptr noundef %0) #2 {
  %2 = alloca ptr, align 8
  store ptr %0, ptr %2, align 8
  %3 = load ptr, ptr %2, align 8
  %4 = icmp ne ptr %3, null
  br i1 %4, label %5, label %9

5:                                                ; preds = %1
  %6 = load ptr, ptr %2, align 8
  %7 = getelementptr inbounds nuw %struct.List, ptr %6, i32 0, i32 1
  %8 = load i32, ptr %7, align 4
  br label %10

9:                                                ; preds = %1
  br label %10

10:                                               ; preds = %9, %5
  %11 = phi i32 [ %8, %5 ], [ 0, %9 ]
  ret i32 %11
}

; Function Attrs: inlinehint nounwind uwtable
define internal ptr @newNode(i64 noundef %0, i32 noundef %1) #2 {
  %3 = alloca i64, align 8
  %4 = alloca i32, align 4
  %5 = alloca ptr, align 8
  store i64 %0, ptr %3, align 8
  store i32 %1, ptr %4, align 4
  call void @llvm.lifetime.start.p0(i64 8, ptr %5) #6
  %6 = load i64, ptr %3, align 8
  %7 = call ptr @palloc0(i64 noundef %6)
  store ptr %7, ptr %5, align 8
  %8 = load i32, ptr %4, align 4
  %9 = load ptr, ptr %5, align 8
  %10 = getelementptr inbounds nuw %struct.Node, ptr %9, i32 0, i32 0
  store i32 %8, ptr %10, align 4
  %11 = load ptr, ptr %5, align 8
  call void @llvm.lifetime.end.p0(i64 8, ptr %5) #6
  ret ptr %11
}

; Function Attrs: nounwind uwtable
define dso_local ptr @replace_outer_returning(ptr noundef %0, ptr noundef %1) #0 {
  %3 = alloca ptr, align 8
  %4 = alloca ptr, align 8
  %5 = alloca ptr, align 8
  %6 = alloca ptr, align 8
  %7 = alloca i32, align 4
  %8 = alloca i32, align 4
  store ptr %0, ptr %3, align 8
  store ptr %1, ptr %4, align 8
  call void @llvm.lifetime.start.p0(i64 8, ptr %5) #6
  call void @llvm.lifetime.start.p0(i64 8, ptr %6) #6
  call void @llvm.lifetime.start.p0(i64 4, ptr %7) #6
  call void @llvm.lifetime.start.p0(i64 4, ptr %8) #6
  %9 = load ptr, ptr %4, align 8
  %10 = getelementptr inbounds nuw %struct.ReturningExpr, ptr %9, i32 0, i32 3
  %11 = load ptr, ptr %10, align 8
  %12 = call i32 @exprType(ptr noundef %11)
  store i32 %12, ptr %8, align 4
  %13 = load ptr, ptr %4, align 8
  %14 = getelementptr inbounds nuw %struct.ReturningExpr, ptr %13, i32 0, i32 1
  %15 = load i32, ptr %14, align 4
  store i32 %15, ptr %7, align 4
  br label %16

16:                                               ; preds = %23, %2
  %17 = load i32, ptr %7, align 4
  %18 = icmp ugt i32 %17, 0
  br i1 %18, label %19, label %26

19:                                               ; preds = %16
  %20 = load ptr, ptr %3, align 8
  %21 = getelementptr inbounds nuw %struct.PlannerInfo, ptr %20, i32 0, i32 4
  %22 = load ptr, ptr %21, align 8
  store ptr %22, ptr %3, align 8
  br label %23

23:                                               ; preds = %19
  %24 = load i32, ptr %7, align 4
  %25 = add i32 %24, -1
  store i32 %25, ptr %7, align 4
  br label %16, !llvm.loop !12

26:                                               ; preds = %16
  %27 = load ptr, ptr %4, align 8
  %28 = call ptr @copyObjectImpl(ptr noundef %27)
  store ptr %28, ptr %4, align 8
  %29 = load ptr, ptr %4, align 8
  %30 = load ptr, ptr %4, align 8
  %31 = getelementptr inbounds nuw %struct.ReturningExpr, ptr %30, i32 0, i32 1
  %32 = load i32, ptr %31, align 4
  %33 = sub i32 0, %32
  call void @IncrementVarSublevelsUp(ptr noundef %29, i32 noundef %33, i32 noundef 0)
  %34 = call ptr @newNode(i64 noundef 24, i32 noundef 325)
  store ptr %34, ptr %6, align 8
  %35 = load ptr, ptr %4, align 8
  %36 = load ptr, ptr %6, align 8
  %37 = getelementptr inbounds nuw %struct.PlannerParamItem, ptr %36, i32 0, i32 1
  store ptr %35, ptr %37, align 8
  %38 = load ptr, ptr %3, align 8
  %39 = getelementptr inbounds nuw %struct.PlannerInfo, ptr %38, i32 0, i32 2
  %40 = load ptr, ptr %39, align 8
  %41 = getelementptr inbounds nuw %struct.PlannerGlobal, ptr %40, i32 0, i32 16
  %42 = load ptr, ptr %41, align 8
  %43 = call i32 @list_length(ptr noundef %42)
  %44 = load ptr, ptr %6, align 8
  %45 = getelementptr inbounds nuw %struct.PlannerParamItem, ptr %44, i32 0, i32 2
  store i32 %43, ptr %45, align 8
  %46 = load ptr, ptr %3, align 8
  %47 = getelementptr inbounds nuw %struct.PlannerInfo, ptr %46, i32 0, i32 2
  %48 = load ptr, ptr %47, align 8
  %49 = getelementptr inbounds nuw %struct.PlannerGlobal, ptr %48, i32 0, i32 16
  %50 = load ptr, ptr %49, align 8
  %51 = load i32, ptr %8, align 4
  %52 = call ptr @lappend_oid(ptr noundef %50, i32 noundef %51)
  %53 = load ptr, ptr %3, align 8
  %54 = getelementptr inbounds nuw %struct.PlannerInfo, ptr %53, i32 0, i32 2
  %55 = load ptr, ptr %54, align 8
  %56 = getelementptr inbounds nuw %struct.PlannerGlobal, ptr %55, i32 0, i32 16
  store ptr %52, ptr %56, align 8
  %57 = load ptr, ptr %3, align 8
  %58 = getelementptr inbounds nuw %struct.PlannerInfo, ptr %57, i32 0, i32 5
  %59 = load ptr, ptr %58, align 8
  %60 = load ptr, ptr %6, align 8
  %61 = call ptr @lappend(ptr noundef %59, ptr noundef %60)
  %62 = load ptr, ptr %3, align 8
  %63 = getelementptr inbounds nuw %struct.PlannerInfo, ptr %62, i32 0, i32 5
  store ptr %61, ptr %63, align 8
  %64 = call ptr @newNode(i64 noundef 28, i32 noundef 8)
  store ptr %64, ptr %5, align 8
  %65 = load ptr, ptr %5, align 8
  %66 = getelementptr inbounds nuw %struct.Param, ptr %65, i32 0, i32 1
  store i32 1, ptr %66, align 4
  %67 = load ptr, ptr %6, align 8
  %68 = getelementptr inbounds nuw %struct.PlannerParamItem, ptr %67, i32 0, i32 2
  %69 = load i32, ptr %68, align 8
  %70 = load ptr, ptr %5, align 8
  %71 = getelementptr inbounds nuw %struct.Param, ptr %70, i32 0, i32 2
  store i32 %69, ptr %71, align 4
  %72 = load i32, ptr %8, align 4
  %73 = load ptr, ptr %5, align 8
  %74 = getelementptr inbounds nuw %struct.Param, ptr %73, i32 0, i32 3
  store i32 %72, ptr %74, align 4
  %75 = load ptr, ptr %4, align 8
  %76 = getelementptr inbounds nuw %struct.ReturningExpr, ptr %75, i32 0, i32 3
  %77 = load ptr, ptr %76, align 8
  %78 = call i32 @exprTypmod(ptr noundef %77)
  %79 = load ptr, ptr %5, align 8
  %80 = getelementptr inbounds nuw %struct.Param, ptr %79, i32 0, i32 4
  store i32 %78, ptr %80, align 4
  %81 = load ptr, ptr %4, align 8
  %82 = getelementptr inbounds nuw %struct.ReturningExpr, ptr %81, i32 0, i32 3
  %83 = load ptr, ptr %82, align 8
  %84 = call i32 @exprCollation(ptr noundef %83)
  %85 = load ptr, ptr %5, align 8
  %86 = getelementptr inbounds nuw %struct.Param, ptr %85, i32 0, i32 5
  store i32 %84, ptr %86, align 4
  %87 = load ptr, ptr %4, align 8
  %88 = getelementptr inbounds nuw %struct.ReturningExpr, ptr %87, i32 0, i32 3
  %89 = load ptr, ptr %88, align 8
  %90 = call i32 @exprLocation(ptr noundef %89)
  %91 = load ptr, ptr %5, align 8
  %92 = getelementptr inbounds nuw %struct.Param, ptr %91, i32 0, i32 6
  store i32 %90, ptr %92, align 4
  %93 = load ptr, ptr %5, align 8
  call void @llvm.lifetime.end.p0(i64 4, ptr %8) #6
  call void @llvm.lifetime.end.p0(i64 4, ptr %7) #6
  call void @llvm.lifetime.end.p0(i64 8, ptr %6) #6
  call void @llvm.lifetime.end.p0(i64 8, ptr %5) #6
  ret ptr %93
}