; Function Attrs: nounwind uwtable
define dso_local noundef ptr @replace_outer_returning(ptr noundef captures(none) %0, ptr noundef %1) local_unnamed_addr #0 {
  %3 = getelementptr inbounds nuw i8, ptr %1, i64 16
  %4 = load ptr, ptr %3, align 8
  %5 = tail call i32 @exprType(ptr noundef %4) #4
  %6 = getelementptr inbounds nuw i8, ptr %1, i64 4
  %7 = load i32, ptr %6, align 4
  %.not30 = icmp eq i32 %7, 0
  br i1 %.not30, label %._crit_edge, label %.lr.ph

.lr.ph:                                           ; preds = %2, %.lr.ph
  %.032 = phi ptr [ %9, %.lr.ph ], [ %0, %2 ]
  %.02931 = phi i32 [ %10, %.lr.ph ], [ %7, %2 ]
  %8 = getelementptr inbounds nuw i8, ptr %.032, i64 32
  %9 = load ptr, ptr %8, align 8
  %10 = add i32 %.02931, -1
  %.not = icmp eq i32 %10, 0
  br i1 %.not, label %._crit_edge, label %.lr.ph, !llvm.loop !10

._crit_edge:                                      ; preds = %.lr.ph, %2
  %.0.lcssa = phi ptr [ %0, %2 ], [ %9, %.lr.ph ]
  %11 = tail call ptr @copyObjectImpl(ptr noundef %1) #4
  %12 = getelementptr inbounds nuw i8, ptr %11, i64 4
  %13 = load i32, ptr %12, align 4
  %14 = sub i32 0, %13
  tail call void @IncrementVarSublevelsUp(ptr noundef %11, i32 noundef %14, i32 noundef 0) #4
  %15 = tail call noundef ptr @palloc0(i64 noundef 24) #4
  store i32 325, ptr %15, align 4
  %16 = getelementptr inbounds nuw i8, ptr %15, i64 8
  store ptr %11, ptr %16, align 8
  %17 = getelementptr inbounds nuw i8, ptr %.0.lcssa, i64 16
  %18 = load ptr, ptr %17, align 8
  %19 = getelementptr inbounds nuw i8, ptr %18, i64 128
  %20 = load ptr, ptr %19, align 8
  %.not.i = icmp eq ptr %20, null
  br i1 %.not.i, label %list_length.exit, label %21

21:                                               ; preds = %._crit_edge
  %22 = getelementptr inbounds nuw i8, ptr %20, i64 4
  %23 = load i32, ptr %22, align 4
  br label %list_length.exit

list_length.exit:                                 ; preds = %._crit_edge, %21
  %24 = phi i32 [ %23, %21 ], [ 0, %._crit_edge ]
  %25 = getelementptr inbounds nuw i8, ptr %15, i64 16
  store i32 %24, ptr %25, align 8
  %26 = load ptr, ptr %17, align 8
  %27 = getelementptr inbounds nuw i8, ptr %26, i64 128
  %28 = load ptr, ptr %27, align 8
  %29 = tail call ptr @lappend_oid(ptr noundef %28, i32 noundef %5) #4
  %30 = load ptr, ptr %17, align 8
  %31 = getelementptr inbounds nuw i8, ptr %30, i64 128
  store ptr %29, ptr %31, align 8
  %32 = getelementptr inbounds nuw i8, ptr %.0.lcssa, i64 40
  %33 = load ptr, ptr %32, align 8
  %34 = tail call ptr @lappend(ptr noundef %33, ptr noundef nonnull %15) #4
  store ptr %34, ptr %32, align 8
  %35 = tail call noundef ptr @palloc0(i64 noundef 28) #4
  store i32 8, ptr %35, align 4
  %36 = getelementptr inbounds nuw i8, ptr %35, i64 4
  store i32 1, ptr %36, align 4
  %37 = load i32, ptr %25, align 8
  %38 = getelementptr inbounds nuw i8, ptr %35, i64 8
  store i32 %37, ptr %38, align 4
  %39 = getelementptr inbounds nuw i8, ptr %35, i64 12
  store i32 %5, ptr %39, align 4
  %40 = getelementptr inbounds nuw i8, ptr %11, i64 16
  %41 = load ptr, ptr %40, align 8
  %42 = tail call i32 @exprTypmod(ptr noundef %41) #4
  %43 = getelementptr inbounds nuw i8, ptr %35, i64 16
  store i32 %42, ptr %43, align 4
  %44 = load ptr, ptr %40, align 8
  %45 = tail call i32 @exprCollation(ptr noundef %44) #4
  %46 = getelementptr inbounds nuw i8, ptr %35, i64 20
  store i32 %45, ptr %46, align 4
  %47 = load ptr, ptr %40, align 8
  %48 = tail call i32 @exprLocation(ptr noundef %47) #4
  %49 = getelementptr inbounds nuw i8, ptr %35, i64 24
  store i32 %48, ptr %49, align 4
  ret ptr %35
}